target datalayout = "e-m:e-p270:32:32-p271:32:32-p272:64:64-i64:64-i128:128-f80:128-n8:16:32:64-S128"
target triple = "x86_64-pc-linux-gnu"

@.str.3 = private unnamed_addr constant [3 x i8] c"%d\00", align 1
@.str.4 = private unnamed_addr constant [17 x i8] c"fileinfo support\00", align 1
@.str.5 = private unnamed_addr constant [8 x i8] c"enabled\00", align 1
@.str.6 = private unnamed_addr constant [9 x i8] c"libmagic\00", align 1

; Function Attrs: nounwind uwtable
define hidden void @zm_info_fileinfo(ptr noundef %0) #0 {
  %2 = alloca ptr, align 8
  %3 = alloca [5 x i8], align 1
  store ptr %0, ptr %2, align 8, !tbaa !48
  call void @llvm.lifetime.start.p0(i64 5, ptr %3) #11
  %4 = getelementptr inbounds [5 x i8], ptr %3, i64 0, i64 0
  %5 = call i32 @magic_version()
  %6 = call i32 (ptr, i64, ptr, ...) @ap_php_snprintf(ptr noundef %4, i64 noundef 4, ptr noundef @.str.3, i32 noundef %5)
  %7 = getelementptr inbounds [5 x i8], ptr %3, i64 0, i64 4
  store i8 0, ptr %7, align 1, !tbaa !16
  call void @php_info_print_table_start()
  call void (i32, ...) @php_info_print_table_row(i32 noundef 2, ptr noundef @.str.4, ptr noundef @.str.5)
  %8 = getelementptr inbounds [5 x i8], ptr %3, i64 0, i64 0
  call void (i32, ...) @php_info_print_table_row(i32 noundef 2, ptr noundef @.str.6, ptr noundef %8)
  call void @php_info_print_table_end()
  call void @llvm.lifetime.end.p0(i64 5, ptr %3) #11
  ret void
}