; Function Attrs: nounwind uwtable
define hidden void @zm_info_fileinfo(ptr readnone captures(none) %0) #0 {
  %2 = alloca [5 x i8], align 1
  call void @llvm.lifetime.start.p0(i64 5, ptr nonnull %2) #9
  %3 = tail call i32 @magic_version() #9
  %4 = call i32 (ptr, i64, ptr, ...) @ap_php_snprintf(ptr noundef nonnull %2, i64 noundef 4, ptr noundef nonnull @.str.3, i32 noundef %3) #9
  %5 = getelementptr inbounds nuw i8, ptr %2, i64 4
  store i8 0, ptr %5, align 1, !tbaa !30
  call void @php_info_print_table_start() #9
  call void (i32, ...) @php_info_print_table_row(i32 noundef 2, ptr noundef nonnull @.str.4, ptr noundef nonnull @.str.5) #9
  call void (i32, ...) @php_info_print_table_row(i32 noundef 2, ptr noundef nonnull @.str.6, ptr noundef nonnull %2) #9
  call void @php_info_print_table_end() #9
  call void @llvm.lifetime.end.p0(i64 5, ptr nonnull %2) #9
  ret void
}